; Function Attrs: mustprogress nounwind uwtable
define void @_ZN18SaveSnapshotDialogD2Ev(ptr noundef nonnull align 8 dereferenceable(88) %0) unnamed_addr #3 align 2 personality ptr @__gxx_personality_v0 {
  store ptr getelementptr inbounds ({ [59 x ptr], [10 x ptr] }, ptr @_ZTV18SaveSnapshotDialog, i64 0, i32 0, i64 2), ptr %0, align 8
  %2 = getelementptr inbounds i8, ptr %0, i64 16
  store ptr getelementptr inbounds ({ [59 x ptr], [10 x ptr] }, ptr @_ZTV18SaveSnapshotDialog, i64 0, i32 1, i64 2), ptr %2, align 8
  %3 = getelementptr inbounds i8, ptr %0, i64 48
  %4 = load ptr, ptr %3, align 8
  %5 = icmp eq ptr %4, null
  br i1 %5, label %7, label %6

6:                                                ; preds = %1
  tail call void @_ZdlPv(ptr noundef nonnull %4) #12
  br label %7

7:                                                ; preds = %6, %1
  %8 = getelementptr inbounds i8, ptr %0, i64 56
  %9 = getelementptr inbounds i8, ptr %0, i64 64
  %10 = load ptr, ptr %9, align 8
  %11 = load atomic i32, ptr %10 monotonic, align 4
  switch i32 %11, label %_ZN9QtPrivate8RefCount5derefEv.exit.i.i [
    i32 0, label %_ZN9QtPrivate8RefCount5derefEv.exit.thread2.i.i
    i32 -1, label %_ZN7QStringD2Ev.exit.i
  ]

_ZN9QtPrivate8RefCount5derefEv.exit.i.i:          ; preds = %7
  %12 = atomicrmw sub ptr %10, i32 1 seq_cst, align 4
  %.not.i.i = icmp eq i32 %12, 1
  br i1 %.not.i.i, label %_ZN9QtPrivate8RefCount5derefEv.exit._ZN9QtPrivate8RefCount5derefEv.exit.thread2_crit_edge.i.i, label %_ZN7QStringD2Ev.exit.i

_ZN9QtPrivate8RefCount5derefEv.exit._ZN9QtPrivate8RefCount5derefEv.exit.thread2_crit_edge.i.i: ; preds = %_ZN9QtPrivate8RefCount5derefEv.exit.i.i
  %.pre.i.i = load ptr, ptr %9, align 8
  br label %_ZN9QtPrivate8RefCount5derefEv.exit.thread2.i.i

_ZN9QtPrivate8RefCount5derefEv.exit.thread2.i.i:  ; preds = %_ZN9QtPrivate8RefCount5derefEv.exit._ZN9QtPrivate8RefCount5derefEv.exit.thread2_crit_edge.i.i, %7
  %13 = phi ptr [ %.pre.i.i, %_ZN9QtPrivate8RefCount5derefEv.exit._ZN9QtPrivate8RefCount5derefEv.exit.thread2_crit_edge.i.i ], [ %10, %7 ]
  tail call void @_ZN10QArrayData10deallocateEPS_mm(ptr noundef %13, i64 noundef 2, i64 noundef 8) #11
  br label %_ZN7QStringD2Ev.exit.i

_ZN7QStringD2Ev.exit.i:                           ; preds = %_ZN9QtPrivate8RefCount5derefEv.exit.thread2.i.i, %_ZN9QtPrivate8RefCount5derefEv.exit.i.i, %7
  %14 = load ptr, ptr %8, align 8
  %15 = load atomic i32, ptr %14 monotonic, align 4
  switch i32 %15, label %_ZN9QtPrivate8RefCount5derefEv.exit.i2.i [
    i32 0, label %_ZN9QtPrivate8RefCount5derefEv.exit.thread2.i1.i
    i32 -1, label %_ZN15SnapshotSettingD2Ev.exit
  ]

_ZN9QtPrivate8RefCount5derefEv.exit.i2.i:         ; preds = %_ZN7QStringD2Ev.exit.i
  %16 = atomicrmw sub ptr %14, i32 1 seq_cst, align 4
  %.not.i3.i = icmp eq i32 %16, 1
  br i1 %.not.i3.i, label %_ZN9QtPrivate8RefCount5derefEv.exit._ZN9QtPrivate8RefCount5derefEv.exit.thread2_crit_edge.i4.i, label %_ZN15SnapshotSettingD2Ev.exit

_ZN9QtPrivate8RefCount5derefEv.exit._ZN9QtPrivate8RefCount5derefEv.exit.thread2_crit_edge.i4.i: ; preds = %_ZN9QtPrivate8RefCount5derefEv.exit.i2.i
  %.pre.i5.i = load ptr, ptr %8, align 8
  br label %_ZN9QtPrivate8RefCount5derefEv.exit.thread2.i1.i

_ZN9QtPrivate8RefCount5derefEv.exit.thread2.i1.i: ; preds = %_ZN9QtPrivate8RefCount5derefEv.exit._ZN9QtPrivate8RefCount5derefEv.exit.thread2_crit_edge.i4.i, %_ZN7QStringD2Ev.exit.i
  %17 = phi ptr [ %.pre.i5.i, %_ZN9QtPrivate8RefCount5derefEv.exit._ZN9QtPrivate8RefCount5derefEv.exit.thread2_crit_edge.i4.i ], [ %14, %_ZN7QStringD2Ev.exit.i ]
  tail call void @_ZN10QArrayData10deallocateEPS_mm(ptr noundef %17, i64 noundef 2, i64 noundef 8) #11
  br label %_ZN15SnapshotSettingD2Ev.exit

_ZN15SnapshotSettingD2Ev.exit:                    ; preds = %_ZN7QStringD2Ev.exit.i, %_ZN9QtPrivate8RefCount5derefEv.exit.i2.i, %_ZN9QtPrivate8RefCount5derefEv.exit.thread2.i1.i
  tail call void @_ZN7QDialogD2Ev(ptr noundef nonnull align 8 dereferenceable(48) %0) #11
  ret void
}